target datalayout = "e-m:e-p270:32:32-p271:32:32-p272:64:64-i64:64-i128:128-f80:128-n8:16:32:64-S128"
target triple = "x86_64-pc-linux-gnu"

@fp_gtk_widget_get_style_context = internal global ptr null, align 8
@fp_gtk_style_context_set_state = internal global ptr null, align 8
@fp_gtk_style_context_save = internal global ptr null, align 8
@fp_gtk_style_context_restore = internal global ptr null, align 8
@fp_gtk_render_expander = internal global ptr null, align 8
@gtk3_version_3_14 = internal global i32 0, align 4
@cr = internal global ptr null, align 8
@gtk3_widget = internal global ptr null, align 8

; Function Attrs: nounwind uwtable
define internal i32 @get_gtk_flags(i32 noundef %0) #0 {
  %2 = alloca i32, align 4
  %3 = alloca i32, align 4
  store i32 %0, ptr %2, align 4
  store i32 0, ptr %3, align 4
  %4 = load i32, ptr %2, align 4
  switch i32 %4, label %20 [
    i32 2, label %5
    i32 3, label %8
    i32 4, label %11
    i32 1, label %14
    i32 6, label %17
  ]

5:                                                ; preds = %1
  %6 = load i32, ptr %3, align 4
  %7 = or i32 %6, 2
  store i32 %7, ptr %3, align 4
  br label %21

8:                                                ; preds = %1
  %9 = load i32, ptr %3, align 4
  %10 = or i32 %9, 4
  store i32 %10, ptr %3, align 4
  br label %21

11:                                               ; preds = %1
  %12 = load i32, ptr %3, align 4
  %13 = or i32 %12, 8
  store i32 %13, ptr %3, align 4
  br label %21

14:                                               ; preds = %1
  %15 = load i32, ptr %3, align 4
  %16 = or i32 %15, 1
  store i32 %16, ptr %3, align 4
  br label %21

17:                                               ; preds = %1
  %18 = load i32, ptr %3, align 4
  %19 = or i32 %18, 32
  store i32 %19, ptr %3, align 4
  br label %21

20:                                               ; preds = %1
  br label %21

21:                                               ; preds = %20, %17, %14, %11, %8, %5
  %22 = load i32, ptr %3, align 4
  ret i32 %22
}

; Function Attrs: nounwind uwtable
define internal void @gtk3_paint_expander(i32 noundef %0, i32 noundef %1, ptr noundef %2, i32 noundef %3, i32 noundef %4, i32 noundef %5, i32 noundef %6, i32 noundef %7) #0 {
  %9 = alloca i32, align 4
  %10 = alloca i32, align 4
  %11 = alloca ptr, align 8
  %12 = alloca i32, align 4
  %13 = alloca i32, align 4
  %14 = alloca i32, align 4
  %15 = alloca i32, align 4
  %16 = alloca i32, align 4
  %17 = alloca ptr, align 8
  %18 = alloca i32, align 4
  store i32 %0, ptr %9, align 4
  store i32 %1, ptr %10, align 4
  store ptr %2, ptr %11, align 8
  store i32 %3, ptr %12, align 4
  store i32 %4, ptr %13, align 4
  store i32 %5, ptr %14, align 4
  store i32 %6, ptr %15, align 4
  store i32 %7, ptr %16, align 4
  %19 = load i32, ptr %9, align 4
  %20 = call ptr @gtk3_get_widget(i32 noundef %19)
  store ptr %20, ptr @gtk3_widget, align 8
  %21 = load ptr, ptr @fp_gtk_widget_get_style_context, align 8
  %22 = load ptr, ptr @gtk3_widget, align 8
  %23 = call ptr %21(ptr noundef %22)
  store ptr %23, ptr %17, align 8
  %24 = load ptr, ptr @fp_gtk_style_context_save, align 8
  %25 = load ptr, ptr %17, align 8
  call void %24(ptr noundef %25)
  %26 = load i32, ptr %10, align 4
  %27 = call i32 @get_gtk_flags(i32 noundef %26)
  store i32 %27, ptr %18, align 4
  %28 = load i32, ptr %16, align 4
  %29 = icmp eq i32 %28, 3
  br i1 %29, label %30, label %40

30:                                               ; preds = %8
  %31 = load i32, ptr @gtk3_version_3_14, align 4
  %32 = icmp ne i32 %31, 0
  br i1 %32, label %33, label %36

33:                                               ; preds = %30
  %34 = load i32, ptr %18, align 4
  %35 = or i32 %34, 2048
  store i32 %35, ptr %18, align 4
  br label %39

36:                                               ; preds = %30
  %37 = load i32, ptr %18, align 4
  %38 = or i32 %37, 1
  store i32 %38, ptr %18, align 4
  br label %39

39:                                               ; preds = %36, %33
  br label %40

40:                                               ; preds = %39, %8
  %41 = load ptr, ptr @fp_gtk_style_context_set_state, align 8
  %42 = load ptr, ptr %17, align 8
  %43 = load i32, ptr %18, align 4
  call void %41(ptr noundef %42, i32 noundef %43)
  %44 = load ptr, ptr %11, align 8
  %45 = icmp ne ptr %44, null
  br i1 %45, label %46, label %49

46:                                               ; preds = %40
  %47 = load ptr, ptr %11, align 8
  %48 = load ptr, ptr %17, align 8
  call void @transform_detail_string(ptr noundef %47, ptr noundef %48)
  br label %49

49:                                               ; preds = %46, %40
  %50 = load ptr, ptr @fp_gtk_render_expander, align 8
  %51 = load ptr, ptr %17, align 8
  %52 = load ptr, ptr @cr, align 8
  %53 = load i32, ptr %12, align 4
  %54 = add nsw i32 %53, 2
  %55 = sitofp i32 %54 to double
  %56 = load i32, ptr %13, align 4
  %57 = add nsw i32 %56, 2
  %58 = sitofp i32 %57 to double
  %59 = load i32, ptr %14, align 4
  %60 = sub nsw i32 %59, 4
  %61 = sitofp i32 %60 to double
  %62 = load i32, ptr %15, align 4
  %63 = sub nsw i32 %62, 4
  %64 = sitofp i32 %63 to double
  call void %50(ptr noundef %51, ptr noundef %52, double noundef %55, double noundef %58, double noundef %61, double noundef %64)
  %65 = load ptr, ptr @fp_gtk_style_context_restore, align 8
  %66 = load ptr, ptr %17, align 8
  call void %65(ptr noundef %66)
  ret void
}