; Function Attrs: nounwind uwtable
define internal void @gtk3_paint_expander(i32 noundef %0, i32 noundef %1, ptr noundef %2, i32 noundef %3, i32 noundef %4, i32 noundef %5, i32 noundef %6, i32 noundef %7) #0 {
  %9 = tail call fastcc ptr @gtk3_get_widget(i32 noundef %0)
  store ptr %9, ptr @gtk3_widget, align 8
  %10 = load ptr, ptr @fp_gtk_widget_get_style_context, align 8
  %11 = tail call ptr %10(ptr noundef %9) #19
  %12 = load ptr, ptr @fp_gtk_style_context_save, align 8
  tail call void %12(ptr noundef %11) #19
  %switch.tableidx = add i32 %1, -1
  %13 = icmp ult i32 %switch.tableidx, 6
  br i1 %13, label %switch.lookup, label %get_gtk_flags.exit

switch.lookup:                                    ; preds = %8
  %14 = zext nneg i32 %switch.tableidx to i64
  %switch.gep = getelementptr inbounds [6 x i32], ptr @switch.table.gtk3_paint_background, i64 0, i64 %14
  %switch.load = load i32, ptr %switch.gep, align 4
  br label %get_gtk_flags.exit

get_gtk_flags.exit:                               ; preds = %switch.lookup, %8
  %.0.i = phi i32 [ 0, %8 ], [ %switch.load, %switch.lookup ]
  %15 = icmp eq i32 %7, 3
  br i1 %15, label %16, label %22

16:                                               ; preds = %get_gtk_flags.exit
  %17 = load i32, ptr @gtk3_version_3_14, align 4
  %.not = icmp eq i32 %17, 0
  br i1 %.not, label %20, label %18

18:                                               ; preds = %16
  %19 = or disjoint i32 %.0.i, 2048
  br label %22

20:                                               ; preds = %16
  %21 = or i32 %.0.i, 1
  br label %22

22:                                               ; preds = %18, %20, %get_gtk_flags.exit
  %.0 = phi i32 [ %19, %18 ], [ %21, %20 ], [ %.0.i, %get_gtk_flags.exit ]
  %23 = load ptr, ptr @fp_gtk_style_context_set_state, align 8
  tail call void %23(ptr noundef %11, i32 noundef %.0) #19
  %.not17 = icmp eq ptr %2, null
  br i1 %.not17, label %25, label %24

24:                                               ; preds = %22
  tail call fastcc void @transform_detail_string(ptr noundef nonnull %2, ptr noundef %11)
  br label %25

25:                                               ; preds = %24, %22
  %26 = load ptr, ptr @fp_gtk_render_expander, align 8
  %27 = load ptr, ptr @cr, align 8
  %28 = add nsw i32 %3, 2
  %29 = sitofp i32 %28 to double
  %30 = add nsw i32 %4, 2
  %31 = sitofp i32 %30 to double
  %32 = add nsw i32 %5, -4
  %33 = sitofp i32 %32 to double
  %34 = add nsw i32 %6, -4
  %35 = sitofp i32 %34 to double
  tail call void %26(ptr noundef %11, ptr noundef %27, double noundef %29, double noundef %31, double noundef %33, double noundef %35) #19
  %36 = load ptr, ptr @fp_gtk_style_context_restore, align 8
  tail call void %36(ptr noundef %11) #19
  ret void
}